target datalayout = "e-m:e-p270:32:32-p271:32:32-p272:64:64-i64:64-i128:128-f80:128-n8:16:32:64-S128"
target triple = "x86_64-pc-linux-gnu"

; Function Attrs: inlinehint nounwind sspstrong willreturn memory(none) uwtable
define internal zeroext i1 @RB_NIL_P(i64 noundef %0) #4 {
  %2 = alloca i64, align 8
  store i64 %0, ptr %2, align 8, !tbaa !35
  %3 = load i64, ptr %2, align 8, !tbaa !35
  %4 = icmp eq i64 %3, 4
  ret i1 %4
}

; Function Attrs: nounwind sspstrong uwtable
define internal i32 @check_exec_options_i_extract(i64 noundef %0, i64 noundef %1, i64 noundef %2) #0 {
  %4 = alloca i64, align 8
  %5 = alloca i64, align 8
  %6 = alloca i64, align 8
  %7 = alloca i64, align 8
  %8 = alloca i64, align 8
  %9 = alloca ptr, align 8
  %10 = alloca i64, align 8
  %11 = alloca i64, align 8
  store i64 %0, ptr %4, align 8, !tbaa !35
  store i64 %1, ptr %5, align 8, !tbaa !35
  store i64 %2, ptr %6, align 8, !tbaa !35
  call void @llvm.lifetime.start.p0(i64 8, ptr %7) #27
  %12 = load i64, ptr %4, align 8, !tbaa !35
  store i64 %12, ptr %7, align 8, !tbaa !35
  call void @llvm.lifetime.start.p0(i64 8, ptr %8) #27
  %13 = load i64, ptr %5, align 8, !tbaa !35
  store i64 %13, ptr %8, align 8, !tbaa !35
  call void @llvm.lifetime.start.p0(i64 8, ptr %9) #27
  %14 = load i64, ptr %6, align 8, !tbaa !35
  %15 = inttoptr i64 %14 to ptr
  store ptr %15, ptr %9, align 8, !tbaa !70
  call void @llvm.lifetime.start.p0(i64 8, ptr %10) #27
  %16 = load ptr, ptr %9, align 8, !tbaa !70
  %17 = getelementptr i64, ptr %16, i64 0
  %18 = load i64, ptr %17, align 8, !tbaa !35
  store i64 %18, ptr %10, align 8, !tbaa !35
  %19 = load i64, ptr %10, align 8, !tbaa !35
  %20 = load i64, ptr %7, align 8, !tbaa !35
  %21 = load i64, ptr %8, align 8, !tbaa !35
  %22 = call i32 @rb_execarg_addopt(i64 noundef %19, i64 noundef %20, i64 noundef %21)
  %23 = icmp ne i32 %22, 0
  br i1 %23, label %24, label %39

24:                                               ; preds = %3
  call void @llvm.lifetime.start.p0(i64 8, ptr %11) #27
  %25 = load ptr, ptr %9, align 8, !tbaa !70
  %26 = getelementptr i64, ptr %25, i64 1
  %27 = load i64, ptr %26, align 8, !tbaa !35
  store i64 %27, ptr %11, align 8, !tbaa !35
  %28 = load i64, ptr %11, align 8, !tbaa !35
  %29 = call zeroext i1 @RB_NIL_P(i64 noundef %28) #28
  br i1 %29, label %30, label %34

30:                                               ; preds = %24
  %31 = call i64 @rb_hash_new()
  store i64 %31, ptr %11, align 8, !tbaa !35
  %32 = load ptr, ptr %9, align 8, !tbaa !70
  %33 = getelementptr i64, ptr %32, i64 1
  store i64 %31, ptr %33, align 8, !tbaa !35
  br label %34

34:                                               ; preds = %30, %24
  %35 = load i64, ptr %11, align 8, !tbaa !35
  %36 = load i64, ptr %7, align 8, !tbaa !35
  %37 = load i64, ptr %8, align 8, !tbaa !35
  %38 = call i64 @rb_hash_aset(i64 noundef %35, i64 noundef %36, i64 noundef %37)
  call void @llvm.lifetime.end.p0(i64 8, ptr %11) #27
  br label %39

39:                                               ; preds = %34, %3
  call void @llvm.lifetime.end.p0(i64 8, ptr %10) #27
  call void @llvm.lifetime.end.p0(i64 8, ptr %9) #27
  call void @llvm.lifetime.end.p0(i64 8, ptr %8) #27
  call void @llvm.lifetime.end.p0(i64 8, ptr %7) #27
  ret i32 0
}