; Function Attrs: nounwind sspstrong uwtable
define internal noundef i32 @check_exec_options_i_extract(i64 noundef %0, i64 noundef %1, i64 noundef %2) #1 {
  %4 = inttoptr i64 %2 to ptr
  %5 = load i64, ptr %4, align 8, !tbaa !43
  %6 = tail call i32 @rb_execarg_addopt(i64 noundef %5, i64 noundef %0, i64 noundef %1)
  %.not = icmp eq i32 %6, 0
  br i1 %.not, label %15, label %7

7:                                                ; preds = %3
  %8 = getelementptr i8, ptr %4, i64 8
  %9 = load i64, ptr %8, align 8, !tbaa !43
  %10 = icmp eq i64 %9, 4
  br i1 %10, label %11, label %13

11:                                               ; preds = %7
  %12 = tail call i64 @rb_hash_new() #27
  store i64 %12, ptr %8, align 8, !tbaa !43
  br label %13

13:                                               ; preds = %11, %7
  %.0 = phi i64 [ %12, %11 ], [ %9, %7 ]
  %14 = tail call i64 @rb_hash_aset(i64 noundef %.0, i64 noundef %0, i64 noundef %1) #27
  br label %15

15:                                               ; preds = %13, %3
  ret i32 0
}